target datalayout = "e-m:e-p270:32:32-p271:32:32-p272:64:64-i64:64-i128:128-f80:128-n8:16:32:64-S128"
target triple = "x86_64-pc-linux-gnu"

%struct.EVP_AES_KEY = type { %union.anon, ptr, %union.anon.0 }
%union.anon = type { double, [240 x i8] }
%union.anon.0 = type { ptr }
%struct.evp_cipher_ctx_st = type { ptr, ptr, i32, i32, [16 x i8], [16 x i8], [32 x i8], i32, ptr, i32, i32, i64, ptr, i32, i32, [32 x i8], i64, ptr, ptr }

; Function Attrs: nounwind uwtable
define internal i32 @aes_ctr_cipher(ptr noundef %0, ptr noundef %1, ptr noundef %2, i64 noundef %3) #0 {
  %5 = alloca i32, align 4
  %6 = alloca ptr, align 8
  %7 = alloca ptr, align 8
  %8 = alloca ptr, align 8
  %9 = alloca i64, align 8
  %10 = alloca i32, align 4
  %11 = alloca i32, align 4
  %12 = alloca ptr, align 8
  %13 = alloca i32, align 4
  store ptr %0, ptr %6, align 8, !tbaa !7
  store ptr %1, ptr %7, align 8, !tbaa !10
  store ptr %2, ptr %8, align 8, !tbaa !10
  store i64 %3, ptr %9, align 8, !tbaa !16
  call void @llvm.lifetime.start.p0(i64 4, ptr %10) #4
  %14 = load ptr, ptr %6, align 8, !tbaa !7
  %15 = call i32 @EVP_CIPHER_CTX_get_num(ptr noundef %14)
  store i32 %15, ptr %10, align 4, !tbaa !3
  call void @llvm.lifetime.start.p0(i64 4, ptr %11) #4
  call void @llvm.lifetime.start.p0(i64 8, ptr %12) #4
  %16 = load ptr, ptr %6, align 8, !tbaa !7
  %17 = call ptr @EVP_CIPHER_CTX_get_cipher_data(ptr noundef %16)
  store ptr %17, ptr %12, align 8, !tbaa !12
  %18 = load i32, ptr %10, align 4, !tbaa !3
  %19 = icmp slt i32 %18, 0
  br i1 %19, label %20, label %21

20:                                               ; preds = %4
  store i32 0, ptr %5, align 4
  store i32 1, ptr %13, align 4
  br label %59

21:                                               ; preds = %4
  %22 = load i32, ptr %10, align 4, !tbaa !3
  store i32 %22, ptr %11, align 4, !tbaa !3
  %23 = load ptr, ptr %12, align 8, !tbaa !12
  %24 = getelementptr inbounds nuw %struct.EVP_AES_KEY, ptr %23, i32 0, i32 2
  %25 = load ptr, ptr %24, align 8, !tbaa !15
  %26 = icmp ne ptr %25, null
  br i1 %26, label %27, label %41

27:                                               ; preds = %21
  %28 = load ptr, ptr %8, align 8, !tbaa !10
  %29 = load ptr, ptr %7, align 8, !tbaa !10
  %30 = load i64, ptr %9, align 8, !tbaa !16
  %31 = load ptr, ptr %12, align 8, !tbaa !12
  %32 = getelementptr inbounds nuw %struct.EVP_AES_KEY, ptr %31, i32 0, i32 0
  %33 = load ptr, ptr %6, align 8, !tbaa !7
  %34 = getelementptr inbounds nuw %struct.evp_cipher_ctx_st, ptr %33, i32 0, i32 5
  %35 = getelementptr inbounds [16 x i8], ptr %34, i64 0, i64 0
  %36 = load ptr, ptr %6, align 8, !tbaa !7
  %37 = call ptr @EVP_CIPHER_CTX_buf_noconst(ptr noundef %36)
  %38 = load ptr, ptr %12, align 8, !tbaa !12
  %39 = getelementptr inbounds nuw %struct.EVP_AES_KEY, ptr %38, i32 0, i32 2
  %40 = load ptr, ptr %39, align 8, !tbaa !15
  call void @CRYPTO_ctr128_encrypt_ctr32(ptr noundef %28, ptr noundef %29, i64 noundef %30, ptr noundef %32, ptr noundef %35, ptr noundef %37, ptr noundef %11, ptr noundef %40)
  br label %55

41:                                               ; preds = %21
  %42 = load ptr, ptr %8, align 8, !tbaa !10
  %43 = load ptr, ptr %7, align 8, !tbaa !10
  %44 = load i64, ptr %9, align 8, !tbaa !16
  %45 = load ptr, ptr %12, align 8, !tbaa !12
  %46 = getelementptr inbounds nuw %struct.EVP_AES_KEY, ptr %45, i32 0, i32 0
  %47 = load ptr, ptr %6, align 8, !tbaa !7
  %48 = getelementptr inbounds nuw %struct.evp_cipher_ctx_st, ptr %47, i32 0, i32 5
  %49 = getelementptr inbounds [16 x i8], ptr %48, i64 0, i64 0
  %50 = load ptr, ptr %6, align 8, !tbaa !7
  %51 = call ptr @EVP_CIPHER_CTX_buf_noconst(ptr noundef %50)
  %52 = load ptr, ptr %12, align 8, !tbaa !12
  %53 = getelementptr inbounds nuw %struct.EVP_AES_KEY, ptr %52, i32 0, i32 1
  %54 = load ptr, ptr %53, align 8, !tbaa !13
  call void @CRYPTO_ctr128_encrypt(ptr noundef %42, ptr noundef %43, i64 noundef %44, ptr noundef %46, ptr noundef %49, ptr noundef %51, ptr noundef %11, ptr noundef %54)
  br label %55

55:                                               ; preds = %41, %27
  %56 = load ptr, ptr %6, align 8, !tbaa !7
  %57 = load i32, ptr %11, align 4, !tbaa !3
  %58 = call i32 @EVP_CIPHER_CTX_set_num(ptr noundef %56, i32 noundef %57)
  store i32 1, ptr %5, align 4
  store i32 1, ptr %13, align 4
  br label %59

59:                                               ; preds = %55, %20
  call void @llvm.lifetime.end.p0(i64 8, ptr %12) #4
  call void @llvm.lifetime.end.p0(i64 4, ptr %11) #4
  call void @llvm.lifetime.end.p0(i64 4, ptr %10) #4
  %60 = load i32, ptr %5, align 4
  ret i32 %60
}